; Function Attrs: null_pointer_is_valid sspstrong uwtable
define internal fastcc void @parse_ATOMICACKETH(ptr noundef %0, ptr %.8.val, ptr noundef %1, ptr noundef captures(none) %2) unnamed_addr #0 {
  %4 = load i32, ptr %2, align 4
  tail call void @col_append_str(ptr noundef %.8.val, i32 noundef 25, ptr noundef nonnull @.str.327)
  %5 = load i32, ptr @hf_opa_AtomicAckETH, align 4
  %6 = tail call ptr @proto_tree_add_item(ptr noundef %1, i32 noundef %5, ptr noundef %0, i32 noundef %4, i32 noundef 8, i32 noundef 0)
  %7 = load i32, ptr @ett_atomicacketh, align 4
  %8 = tail call ptr @proto_item_add_subtree(ptr noundef %6, i32 noundef %7)
  %9 = load i32, ptr @hf_opa_AtomicAckETH_original_remote_data, align 4
  %10 = tail call ptr @proto_tree_add_item(ptr noundef %8, i32 noundef %9, ptr noundef %0, i32 noundef %4, i32 noundef 8, i32 noundef 0)
  %11 = add i32 %4, 8
  store i32 %11, ptr %2, align 4
  ret void
}